; Function Attrs: nounwind uwtable
define range(i32 0, 2) i32 @PQ_insert(ptr noundef %0) local_unnamed_addr #6 {
  %2 = load i32, ptr @PQcnt, align 4, !tbaa !12
  %3 = load i32, ptr @PQsize, align 4, !tbaa !12
  %4 = icmp eq i32 %2, %3
  br i1 %4, label %5, label %6

5:                                                ; preds = %1
  tail call void (ptr, ...) @agerrorf(ptr noundef nonnull @.str) #18
  br label %28

6:                                                ; preds = %1
  %7 = add nsw i32 %2, 1
  store i32 %7, ptr @PQcnt, align 4, !tbaa !12
  %8 = load ptr, ptr @pq, align 8, !tbaa !3
  %9 = sext i32 %7 to i64
  %10 = getelementptr inbounds ptr, ptr %8, i64 %9
  store ptr %0, ptr %10, align 8, !tbaa !10
  %11 = load i32, ptr %0, align 8, !tbaa !14
  %.01415.i = sdiv i32 %7, 2
  %12 = sext i32 %.01415.i to i64
  %13 = getelementptr inbounds ptr, ptr %8, i64 %12
  %14 = load ptr, ptr %13, align 8, !tbaa !10
  %15 = load i32, ptr %14, align 8, !tbaa !14
  %16 = icmp slt i32 %15, %11
  br i1 %16, label %.lr.ph.i, label %PQupheap.exit

.lr.ph.i:                                         ; preds = %6, %.lr.ph.i
  %17 = phi ptr [ %23, %.lr.ph.i ], [ %14, %6 ]
  %.01417.i = phi i32 [ %.014.i, %.lr.ph.i ], [ %.01415.i, %6 ]
  %.016.i = phi i32 [ %.01417.i, %.lr.ph.i ], [ %7, %6 ]
  %18 = sext i32 %.016.i to i64
  %19 = getelementptr inbounds ptr, ptr %8, i64 %18
  store ptr %17, ptr %19, align 8, !tbaa !10
  %20 = getelementptr inbounds nuw i8, ptr %17, i64 4
  store i32 %.016.i, ptr %20, align 4, !tbaa !20
  %.014.i = sdiv i32 %.01417.i, 2
  %21 = sext i32 %.014.i to i64
  %22 = getelementptr inbounds ptr, ptr %8, i64 %21
  %23 = load ptr, ptr %22, align 8, !tbaa !10
  %24 = load i32, ptr %23, align 8, !tbaa !14
  %25 = icmp slt i32 %24, %11
  br i1 %25, label %.lr.ph.i, label %._crit_edge.loopexit.i, !llvm.loop !21

._crit_edge.loopexit.i:                           ; preds = %.lr.ph.i
  %.pre.i = sext i32 %.01417.i to i64
  br label %PQupheap.exit

PQupheap.exit:                                    ; preds = %6, %._crit_edge.loopexit.i
  %.pre-phi.i = phi i64 [ %.pre.i, %._crit_edge.loopexit.i ], [ %9, %6 ]
  %.0.lcssa.i = phi i32 [ %.01417.i, %._crit_edge.loopexit.i ], [ %7, %6 ]
  %26 = getelementptr inbounds ptr, ptr %8, i64 %.pre-phi.i
  store ptr %0, ptr %26, align 8, !tbaa !10
  %27 = getelementptr inbounds nuw i8, ptr %0, i64 4
  store i32 %.0.lcssa.i, ptr %27, align 4, !tbaa !20
  br label %28

28:                                               ; preds = %PQupheap.exit, %5
  %.0 = phi i32 [ 1, %5 ], [ 0, %PQupheap.exit ]
  ret i32 %.0
}